(dp0
S'_AgentService:AgentInfo'
p1
(dp2
S'com.plexapp.agents.fanarttv'
p3
(lp4
(dp5
S'media_types'
p6
(lp7
S'Movie'
p8
asS'primary_provider'
p9
I00
sS'fallback_agent'
p10
NsS'contributes_to'
p11
(lp12
S'com.plexapp.agents.imdb'
p13
aS'com.plexapp.agents.themoviedb'
p14
asS'has_attribution'
p15
I01
sS'languages'
p16
(lp17
S'xn'
p18
asS'persist_stored_files'
p19
I01
sS'version'
p20
I0
sS'accepts_from'
p21
NsS'prefs'
p22
I01
sS'name'
p23
S'Fanart.tv'
p24
sa(dp25
S'media_types'
p26
(lp27
S'TV_Show'
p28
asS'primary_provider'
p29
I00
sS'fallback_agent'
p30
NsS'contributes_to'
p31
(lp32
S'com.plexapp.agents.thetvdb'
p33
aS'com.plexapp.agents.themoviedb'
p34
asg15
I01
sS'languages'
p35
(lp36
S'xn'
p37
asS'persist_stored_files'
p38
I01
sS'version'
p39
I0
sS'accepts_from'
p40
NsS'prefs'
p41
I01
sS'name'
p42
S'Fanart.tv'
p43
sa(dp44
S'media_types'
p45
(lp46
S'Artist'
p47
asS'primary_provider'
p48
I00
sS'fallback_agent'
p49
NsS'contributes_to'
p50
(lp51
S'com.plexapp.agents.lastfm'
p52
asg15
I01
sS'languages'
p53
(lp54
S'xn'
p55
asS'persist_stored_files'
p56
I01
sS'version'
p57
I0
sS'accepts_from'
p58
NsS'prefs'
p59
I01
sS'name'
p60
S'Fanart.tv'
p61
sa(dp62
S'media_types'
p63
(lp64
S'Album'
p65
asS'primary_provider'
p66
I00
sS'fallback_agent'
p67
NsS'contributes_to'
p68
(lp69
S'com.plexapp.agents.lastfm'
p70
asg15
I01
sS'languages'
p71
(lp72
S'xn'
p73
asS'persist_stored_files'
p74
I01
sS'version'
p75
I0
sS'accepts_from'
p76
NsS'prefs'
p77
I01
sS'name'
p78
S'Fanart.tv'
p79
sasS'com.plexapp.agents.none'
p80
(lp81
(dp82
S'media_types'
p83
(lp84
S'Movie'
p85
asS'primary_provider'
p86
I01
sS'fallback_agent'
p87
NsS'contributes_to'
p88
Nsg15
I00
sS'languages'
p89
(lp90
S'xn'
p91
asS'persist_stored_files'
p92
I01
sS'version'
p93
I0
sS'accepts_from'
p94
NsS'prefs'
p95
I00
sS'name'
p96
S'Personal Media'
p97
sa(dp98
S'media_types'
p99
(lp100
S'TV_Show'
p101
asS'primary_provider'
p102
I01
sS'fallback_agent'
p103
NsS'contributes_to'
p104
Nsg15
I00
sS'languages'
p105
(lp106
S'xn'
p107
asS'persist_stored_files'
p108
I01
sS'version'
p109
I0
sS'accepts_from'
p110
NsS'prefs'
p111
I00
sS'name'
p112
S'Personal Media Shows'
p113
sa(dp114
S'media_types'
p115
(lp116
S'Artist'
p117
asS'primary_provider'
p118
I01
sS'fallback_agent'
p119
NsS'contributes_to'
p120
Nsg15
I00
sS'languages'
p121
(lp122
S'xn'
p123
asS'persist_stored_files'
p124
I01
sS'version'
p125
I0
sS'accepts_from'
p126
NsS'prefs'
p127
I00
sS'name'
p128
S'Personal Media Artists'
p129
sa(dp130
S'media_types'
p131
(lp132
S'Album'
p133
asS'primary_provider'
p134
I01
sS'fallback_agent'
p135
NsS'contributes_to'
p136
Nsg15
I00
sS'languages'
p137
(lp138
S'xn'
p139
asS'persist_stored_files'
p140
I01
sS'version'
p141
I0
sS'accepts_from'
p142
NsS'prefs'
p143
I00
sS'name'
p144
S'Personal Media Albums'
p145
sa(dp146
S'media_types'
p147
(lp148
S'Photo'
p149
asS'primary_provider'
p150
I01
sS'fallback_agent'
p151
NsS'contributes_to'
p152
Nsg15
I00
sS'languages'
p153
(lp154
S'en'
p155
aS'ar'
p156
aS'bg'
p157
aS'ca'
p158
aS'cs'
p159
aS'cy'
p160
aS'da'
p161
aS'de'
p162
aS'el'
p163
aS'es'
p164
aS'et'
p165
aS'fa'
p166
aS'fi'
p167
aS'fr'
p168
aS'he'
p169
aS'hi'
p170
aS'hr'
p171
aS'ht'
p172
aS'hu'
p173
aS'id'
p174
aS'it'
p175
aS'ja'
p176
aS'ko'
p177
aS'lt'
p178
aS'lv'
p179
aS'ms'
p180
aS'mt'
p181
aS'nl'
p182
aS'no'
p183
aS'pl'
p184
aS'pt'
p185
aS'ro'
p186
aS'ru'
p187
aS'sk'
p188
aS'sv'
p189
aS'sl'
p190
aS'sr'
p191
aS'th'
p192
aS'tr'
p193
aS'uk'
p194
aS'ur'
p195
aS'vi'
p196
aS'zh'
p197
aS'xn'
p198
asS'persist_stored_files'
p199
I01
sS'version'
p200
I0
sS'accepts_from'
p201
NsS'prefs'
p202
I00
sS'name'
p203
S'Photos'
p204
sasS'com.plexapp.agents.plexmusic'
p205
(lp206
(dp207
S'media_types'
p208
(lp209
S'Artist'
p210
asS'primary_provider'
p211
I01
sS'fallback_agent'
p212
NsS'contributes_to'
p213
(lp214
S'com.plexapp.agents.localmedia'
p215
asg15
I01
sS'languages'
p216
(lp217
S'en'
p218
aS'ar'
p219
aS'bg'
p220
aS'zh'
p221
aS'hr'
p222
aS'cs'
p223
aS'da'
p224
aS'nl'
p225
aS'fi'
p226
aS'fr'
p227
aS'de'
p228
aS'el'
p229
aS'hu'
p230
aS'id'
p231
aS'it'
p232
aS'ja'
p233
aS'ko'
p234
aS'nn'
p235
aS'pl'
p236
aS'pt'
p237
aS'ro'
p238
aS'ru'
p239
aS'sr'
p240
aS'sk'
p241
aS'es'
p242
aS'sv'
p243
aS'th'
p244
aS'tr'
p245
aS'vi'
p246
asS'persist_stored_files'
p247
I01
sS'version'
p248
I0
sS'accepts_from'
p249
NsS'prefs'
p250
I01
sS'name'
p251
S'Plex Premium Music'
p252
sa(dp253
S'media_types'
p254
(lp255
S'Album'
p256
asS'primary_provider'
p257
I01
sS'fallback_agent'
p258
NsS'contributes_to'
p259
(lp260
S'com.plexapp.agents.localmedia'
p261
asg15
I01
sS'languages'
p262
(lp263
S'en'
p264
aS'ar'
p265
aS'bg'
p266
aS'zh'
p267
aS'hr'
p268
aS'cs'
p269
aS'da'
p270
aS'nl'
p271
aS'fi'
p272
aS'fr'
p273
aS'de'
p274
aS'el'
p275
aS'hu'
p276
aS'id'
p277
aS'it'
p278
aS'ja'
p279
aS'ko'
p280
aS'nn'
p281
aS'pl'
p282
aS'pt'
p283
aS'ro'
p284
aS'ru'
p285
aS'sr'
p286
aS'sk'
p287
aS'es'
p288
aS'sv'
p289
aS'th'
p290
aS'tr'
p291
aS'vi'
p292
asS'persist_stored_files'
p293
I01
sS'version'
p294
I0
sS'accepts_from'
p295
NsS'prefs'
p296
I01
sS'name'
p297
S'Plex Premium Music'
p298
sasS'com.plexapp.agents.opensubtitles'
p299
(lp300
(dp301
S'media_types'
p302
(lp303
S'Movie'
p304
asS'primary_provider'
p305
I00
sS'fallback_agent'
p306
NsS'contributes_to'
p307
(lp308
S'com.plexapp.agents.imdb'
p309
asg15
I00
sS'languages'
p310
(lp311
S'xn'
p312
asS'persist_stored_files'
p313
I01
sS'version'
p314
I0
sS'accepts_from'
p315
NsS'prefs'
p316
I01
sS'name'
p317
S'OpenSubtitles.org'
p318
sa(dp319
S'media_types'
p320
(lp321
S'TV_Show'
p322
asS'primary_provider'
p323
I00
sS'fallback_agent'
p324
NsS'contributes_to'
p325
(lp326
S'com.plexapp.agents.thetvdb'
p327
asg15
I00
sS'languages'
p328
(lp329
S'xn'
p330
asS'persist_stored_files'
p331
I01
sS'version'
p332
I0
sS'accepts_from'
p333
NsS'prefs'
p334
I01
sS'name'
p335
S'OpenSubtitles.org'
p336
sasS'com.plexapp.agents.imdb'
p337
(lp338
(dp339
S'media_types'
p340
(lp341
S'Movie'
p342
asS'primary_provider'
p343
I01
sS'fallback_agent'
p344
NsS'contributes_to'
p345
(lp346
S'com.plexapp.agents.themoviedb'
p347
asS'has_attribution'
p348
I01
sS'languages'
p349
(lp350
S'en'
p351
aS'sv'
p352
aS'fr'
p353
aS'es'
p354
aS'nl'
p355
aS'de'
p356
aS'it'
p357
aS'da'
p358
aS'ar'
p359
aS'ca'
p360
aS'zh'
p361
aS'cs'
p362
aS'et'
p363
aS'fi'
p364
aS'el'
p365
aS'he'
p366
aS'hi'
p367
aS'hu'
p368
aS'id'
p369
aS'ja'
p370
aS'ko'
p371
aS'lv'
p372
aS'no'
p373
aS'fa'
p374
aS'pl'
p375
aS'pt'
p376
aS'ro'
p377
aS'ru'
p378
aS'sk'
p379
aS'th'
p380
aS'tr'
p381
aS'uk'
p382
aS'vi'
p383
asS'persist_stored_files'
p384
I01
sS'version'
p385
I0
sS'accepts_from'
p386
(lp387
S'com.plexapp.agents.localmedia'
p388
asS'prefs'
p389
I01
sS'name'
p390
S'Plex Movie'
p391
sasS'com.plexapp.agents.lyricfind'
p392
(lp393
(dp394
S'media_types'
p395
(lp396
S'Album'
p397
asS'primary_provider'
p398
I00
sS'fallback_agent'
p399
NsS'contributes_to'
p400
(lp401
S'com.plexapp.agents.plexmusic'
p402
aS'com.plexapp.agents.localmedia'
p403
aS'com.plexapp.agents.lastfm'
p404
asg15
I01
sS'languages'
p405
(lp406
S'xn'
p407
asS'persist_stored_files'
p408
I01
sS'version'
p409
I0
sS'accepts_from'
p410
NsS'prefs'
p411
I00
sS'name'
p412
S'LyricFind'
p413
sasS'com.plexapp.agents.thetvdb'
p414
(lp415
(dp416
S'media_types'
p417
(lp418
S'TV_Show'
p419
asS'primary_provider'
p420
I01
sS'fallback_agent'
p421
NsS'contributes_to'
p422
Nsg15
I01
sS'languages'
p423
(lp424
S'en'
p425
aS'fr'
p426
aS'zh'
p427
aS'sv'
p428
aS'no'
p429
aS'da'
p430
aS'fi'
p431
aS'nl'
p432
aS'de'
p433
aS'it'
p434
aS'es'
p435
aS'pl'
p436
aS'hu'
p437
aS'el'
p438
aS'tr'
p439
aS'ru'
p440
aS'he'
p441
aS'ja'
p442
aS'pt'
p443
aS'cs'
p444
aS'ko'
p445
aS'sl'
p446
aS'hr'
p447
asS'persist_stored_files'
p448
I01
sS'version'
p449
I0
sS'accepts_from'
p450
NsS'prefs'
p451
I01
sS'name'
p452
S'TheTVDB'
p453
sasS'com.plexapp.agents.localmedia'
p454
(lp455
(dp456
S'media_types'
p457
(lp458
S'Movie'
p459
asS'primary_provider'
p460
I00
sS'fallback_agent'
p461
NsS'contributes_to'
p462
(lp463
S'com.plexapp.agents.imdb'
p464
aS'com.plexapp.agents.none'
p465
asg15
I00
sS'languages'
p466
(lp467
S'xn'
p468
asS'persist_stored_files'
p469
I00
sS'version'
p470
I0
sS'accepts_from'
p471
NsS'prefs'
p472
I01
sS'name'
p473
S'Local Media Assets (Movies)'
p474
sa(dp475
S'media_types'
p476
(lp477
S'TV_Show'
p478
asS'primary_provider'
p479
I00
sS'fallback_agent'
p480
NsS'contributes_to'
p481
(lp482
S'com.plexapp.agents.thetvdb'
p483
aS'com.plexapp.agents.none'
p484
asg15
I00
sS'languages'
p485
(lp486
S'xn'
p487
asS'persist_stored_files'
p488
I00
sS'version'
p489
I0
sS'accepts_from'
p490
NsS'prefs'
p491
I01
sS'name'
p492
S'Local Media Assets (TV)'
p493
sa(dp494
S'media_types'
p495
(lp496
S'Artist'
p497
asS'primary_provider'
p498
I00
sS'fallback_agent'
p499
NsS'contributes_to'
p500
(lp501
S'com.plexapp.agents.discogs'
p502
aS'com.plexapp.agents.lastfm'
p503
aS'com.plexapp.agents.plexmusic'
p504
aS'com.plexapp.agents.none'
p505
asg15
I00
sS'languages'
p506
(lp507
S'xn'
p508
asS'persist_stored_files'
p509
I00
sS'version'
p510
I0
sS'accepts_from'
p511
NsS'prefs'
p512
I01
sS'name'
p513
S'Local Media Assets (Artists)'
p514
sa(dp515
S'media_types'
p516
(lp517
S'Artist'
p518
asS'primary_provider'
p519
I00
sS'fallback_agent'
p520
NsS'contributes_to'
p521
(lp522
S'com.plexapp.agents.plexmusic'
p523
asg15
I00
sS'languages'
p524
g507
sS'persist_stored_files'
p525
I00
sS'version'
p526
I2
sS'accepts_from'
p527
NsS'prefs'
p528
I01
sS'name'
p529
S'Local Media Assets (Artists)'
p530
sa(dp531
S'media_types'
p532
(lp533
S'Album'
p534
asS'primary_provider'
p535
I00
sS'fallback_agent'
p536
NsS'contributes_to'
p537
(lp538
S'com.plexapp.agents.discogs'
p539
aS'com.plexapp.agents.lastfm'
p540
aS'com.plexapp.agents.plexmusic'
p541
aS'com.plexapp.agents.none'
p542
asg15
I00
sS'languages'
p543
(lp544
S'xn'
p545
asS'persist_stored_files'
p546
I00
sS'version'
p547
I0
sS'accepts_from'
p548
NsS'prefs'
p549
I01
sS'name'
p550
S'Local Media Assets (Albums)'
p551
sasS'com.plexapp.agents.plexthememusic'
p552
(lp553
(dp554
S'media_types'
p555
(lp556
S'TV_Show'
p557
asS'primary_provider'
p558
I00
sS'fallback_agent'
p559
NsS'contributes_to'
p560
(lp561
S'com.plexapp.agents.thetvdb'
p562
aS'com.plexapp.agents.thetvdbdvdorder'
p563
aS'com.plexapp.agents.themoviedb'
p564
asg15
I00
sS'languages'
p565
(lp566
S'xn'
p567
asS'persist_stored_files'
p568
I01
sS'version'
p569
I0
sS'accepts_from'
p570
NsS'prefs'
p571
I00
sS'name'
p572
S'Plex Theme Music'
p573
sasS'com.plexapp.agents.themoviedb'
p574
(lp575
(dp576
S'media_types'
p577
(lp578
S'Movie'
p579
asS'primary_provider'
p580
I01
sS'fallback_agent'
p581
NsS'contributes_to'
p582
Nsg15
I01
sS'languages'
p583
(lp584
S'en'
p585
aS'cs'
p586
aS'da'
p587
aS'de'
p588
aS'el'
p589
aS'es'
p590
aS'fi'
p591
aS'fr'
p592
aS'he'
p593
aS'hr'
p594
aS'hu'
p595
aS'it'
p596
aS'lv'
p597
aS'lt'
p598
aS'nl'
p599
aS'no'
p600
aS'pl'
p601
aS'pt'
p602
aS'ru'
p603
aS'sk'
p604
aS'sv'
p605
aS'th'
p606
aS'tr'
p607
aS'vi'
p608
aS'zh'
p609
aS'ko'
p610
asS'persist_stored_files'
p611
I01
sS'version'
p612
I0
sS'accepts_from'
p613
(lp614
S'com.plexapp.agents.localmedia'
p615
asS'prefs'
p616
I01
sS'name'
p617
S'The Movie Database'
p618
sa(dp619
S'media_types'
p620
(lp621
S'TV_Show'
p622
asS'primary_provider'
p623
I01
sS'fallback_agent'
p624
NsS'contributes_to'
p625
(lp626
S'com.plexapp.agents.thetvdb'
p627
asg15
I01
sS'languages'
p628
g584
sS'persist_stored_files'
p629
I01
sS'version'
p630
I0
sS'accepts_from'
p631
(lp632
S'com.plexapp.agents.localmedia'
p633
aS'com.plexapp.agents.thetvdb'
p634
asS'prefs'
p635
I01
sS'name'
p636
S'The Movie Database'
p637
sasS'com.plexapp.agents.movieposterdb'
p638
(lp639
(dp640
S'media_types'
p641
(lp642
S'Movie'
p643
asS'primary_provider'
p644
I00
sS'fallback_agent'
p645
NsS'contributes_to'
p646
(lp647
S'com.plexapp.agents.imdb'
p648
asg15
I01
sS'languages'
p649
(lp650
S'xn'
p651
asS'persist_stored_files'
p652
I01
sS'version'
p653
I0
sS'accepts_from'
p654
NsS'prefs'
p655
I00
sS'name'
p656
S'CineMaterial'
p657
sasS'com.plexapp.agents.htbackdrops'
p658
(lp659
(dp660
S'media_types'
p661
(lp662
S'Artist'
p663
asS'primary_provider'
p664
I00
sS'fallback_agent'
p665
NsS'contributes_to'
p666
(lp667
S'com.plexapp.agents.lastfm'
p668
asg15
I01
sS'languages'
p669
(lp670
S'ab'
p671
aS'aa'
p672
aS'af'
p673
aS'ak'
p674
aS'sq'
p675
aS'am'
p676
aS'ar'
p677
aS'an'
p678
aS'hy'
p679
aS'as'
p680
aS'av'
p681
aS'ae'
p682
aS'ay'
p683
aS'az'
p684
aS'bm'
p685
aS'ba'
p686
aS'eu'
p687
aS'be'
p688
aS'bn'
p689
aS'bh'
p690
aS'bi'
p691
aS'bs'
p692
aS'pb'
p693
aS'br'
p694
aS'bg'
p695
aS'my'
p696
aS'ca'
p697
aS'ch'
p698
aS'ce'
p699
aS'ny'
p700
aS'zh'
p701
aS'cu'
p702
aS'cv'
p703
aS'kw'
p704
aS'co'
p705
aS'cr'
p706
aS'hr'
p707
aS'cs'
p708
aS'da'
p709
aS'dv'
p710
aS'nl'
p711
aS'dz'
p712
aS'en'
p713
aS'eo'
p714
aS'et'
p715
aS'ee'
p716
aS'fo'
p717
aS'fj'
p718
aS'fi'
p719
aS'fr'
p720
aS'fy'
p721
aS'ff'
p722
aS'gd'
p723
aS'gl'
p724
aS'lg'
p725
aS'ka'
p726
aS'de'
p727
aS'el'
p728
aS'gn'
p729
aS'gu'
p730
aS'ht'
p731
aS'ha'
p732
aS'he'
p733
aS'hz'
p734
aS'hi'
p735
aS'ho'
p736
aS'hu'
p737
aS'is'
p738
aS'io'
p739
aS'ig'
p740
aS'id'
p741
aS'ia'
p742
aS'ie'
p743
aS'iu'
p744
aS'ik'
p745
aS'ga'
p746
aS'it'
p747
aS'ja'
p748
aS'jv'
p749
aS'kl'
p750
aS'kn'
p751
aS'kr'
p752
aS'ks'
p753
aS'kk'
p754
aS'km'
p755
aS'ki'
p756
aS'rw'
p757
aS'ky'
p758
aS'kv'
p759
aS'kg'
p760
aS'ko'
p761
aS'kj'
p762
aS'ku'
p763
aS'lo'
p764
aS'la'
p765
aS'lv'
p766
aS'li'
p767
aS'ln'
p768
aS'lt'
p769
aS'lu'
p770
aS'lb'
p771
aS'mk'
p772
aS'mg'
p773
aS'ms'
p774
aS'ml'
p775
aS'mt'
p776
aS'gv'
p777
aS'mi'
p778
aS'mr'
p779
aS'mh'
p780
aS'mo'
p781
aS'mn'
p782
aS'na'
p783
aS'nv'
p784
aS'ng'
p785
aS'ne'
p786
aS'xn'
p787
aS'nd'
p788
aS'no'
p789
aS'nb'
p790
aS'nn'
p791
aS'oc'
p792
aS'oj'
p793
aS'or'
p794
aS'om'
p795
aS'os'
p796
aS'pi'
p797
aS'pa'
p798
aS'fa'
p799
aS'pl'
p800
aS'pt'
p801
aS'ps'
p802
aS'qu'
p803
aS'rm'
p804
aS'ro'
p805
aS'rn'
p806
aS'ru'
p807
aS'se'
p808
aS'sm'
p809
aS'sg'
p810
aS'sa'
p811
aS'sc'
p812
aS'sr'
p813
aS'sn'
p814
aS'ii'
p815
aS'sd'
p816
aS'si'
p817
aS'sk'
p818
aS'sl'
p819
aS'so'
p820
aS'st'
p821
aS'nr'
p822
aS'es'
p823
aS'su'
p824
aS'sw'
p825
aS'ss'
p826
aS'sv'
p827
aS'tl'
p828
aS'ty'
p829
aS'tg'
p830
aS'ta'
p831
aS'tt'
p832
aS'te'
p833
aS'th'
p834
aS'bo'
p835
aS'ti'
p836
aS'to'
p837
aS'ts'
p838
aS'tn'
p839
aS'tr'
p840
aS'tk'
p841
aS'tw'
p842
aS'ug'
p843
aS'uk'
p844
aS'ur'
p845
aS'uz'
p846
aS've'
p847
aS'vi'
p848
aS'vo'
p849
aS'wa'
p850
aS'cy'
p851
aS'wo'
p852
aS'xh'
p853
aS'yi'
p854
aS'yo'
p855
aS'za'
p856
aS'zu'
p857
asS'persist_stored_files'
p858
I01
sS'version'
p859
I0
sS'accepts_from'
p860
NsS'prefs'
p861
I00
sS'name'
p862
S'Home Theater Backdrops'
p863
sasS'com.plexapp.agents.lastfm'
p864
(lp865
(dp866
S'media_types'
p867
(lp868
S'Artist'
p869
asS'primary_provider'
p870
I01
sS'fallback_agent'
p871
NsS'contributes_to'
p872
Nsg15
I01
sS'languages'
p873
(lp874
S'en'
p875
aS'sv'
p876
aS'fr'
p877
aS'es'
p878
aS'de'
p879
aS'pl'
p880
aS'it'
p881
aS'pt'
p882
aS'ja'
p883
aS'tr'
p884
aS'ru'
p885
aS'zh'
p886
asS'persist_stored_files'
p887
I01
sS'version'
p888
I0
sS'accepts_from'
p889
NsS'prefs'
p890
I01
sS'name'
p891
S'Last.fm'
p892
sa(dp893
S'media_types'
p894
(lp895
S'Album'
p896
asS'primary_provider'
p897
I01
sS'fallback_agent'
p898
NsS'contributes_to'
p899
Nsg15
I01
sS'languages'
p900
(lp901
S'en'
p902
aS'sv'
p903
aS'fr'
p904
aS'es'
p905
aS'de'
p906
aS'pl'
p907
aS'it'
p908
aS'pt'
p909
aS'ja'
p910
aS'tr'
p911
aS'ru'
p912
aS'zh'
p913
asS'persist_stored_files'
p914
I01
sS'version'
p915
I0
sS'accepts_from'
p916
NsS'prefs'
p917
I01
sS'name'
p918
S'Last.fm'
p919
sass.